target datalayout = "e-m:e-p270:32:32-p271:32:32-p272:64:64-i64:64-i128:128-f80:128-n8:16:32:64-S128"
target triple = "x86_64-pc-linux-gnu"

%struct._object = type { %union.anon, ptr }
%union.anon = type { i64 }
%struct._ts = type { ptr, ptr, ptr, i64, %struct.anon, i32, i32, i32, i32, i32, i32, i32, i32, ptr, ptr, ptr, ptr, ptr, ptr, ptr, ptr, i32, ptr, i64, i64, ptr, i64, i32, ptr, ptr, ptr, i64, i64, ptr, ptr, ptr, %struct._err_stackitem, ptr, i64, ptr, ptr }
%struct.anon = type { i32 }
%struct._err_stackitem = type { ptr, ptr }

@_Py_NoneStruct = external global %struct._object, align 8
@PyExc_ValueError = external global ptr, align 8
@_Py_tss_tstate = external thread_local global ptr, align 8
@.str.127 = private unnamed_addr constant [48 x i8] c"recursion limit must be greater or equal than 1\00", align 1
@PyExc_RecursionError = external global ptr, align 8
@.str.128 = private unnamed_addr constant [85 x i8] c"cannot set the recursion limit to %i at the recursion depth %i: the limit is too low\00", align 1

; Function Attrs: inlinehint nounwind uwtable
define internal ptr @_PyThreadState_GET() #3 {
  %1 = call align 8 ptr @llvm.threadlocal.address.p0(ptr align 8 @_Py_tss_tstate)
  %2 = load ptr, ptr %1, align 8, !tbaa !4
  ret ptr %2
}

; Function Attrs: nounwind uwtable
define internal ptr @sys_setrecursionlimit_impl(ptr noundef %0, i32 noundef %1) #0 {
  %3 = alloca ptr, align 8
  %4 = alloca ptr, align 8
  %5 = alloca i32, align 4
  %6 = alloca ptr, align 8
  %7 = alloca i32, align 4
  %8 = alloca i32, align 4
  store ptr %0, ptr %4, align 8, !tbaa !9
  store i32 %1, ptr %5, align 4, !tbaa !97
  call void @llvm.lifetime.start.p0(i64 8, ptr %6) #12
  %9 = call ptr @_PyThreadState_GET()
  store ptr %9, ptr %6, align 8, !tbaa !4
  %10 = load i32, ptr %5, align 4, !tbaa !97
  %11 = icmp slt i32 %10, 1
  br i1 %11, label %12, label %15

12:                                               ; preds = %2
  %13 = load ptr, ptr %6, align 8, !tbaa !4
  %14 = load ptr, ptr @PyExc_ValueError, align 8, !tbaa !9
  call void @_PyErr_SetString(ptr noundef %13, ptr noundef %14, ptr noundef @.str.127)
  store ptr null, ptr %3, align 8
  store i32 1, ptr %7, align 4
  br label %35

15:                                               ; preds = %2
  call void @llvm.lifetime.start.p0(i64 4, ptr %8) #12
  %16 = load ptr, ptr %6, align 8, !tbaa !4
  %17 = getelementptr inbounds nuw %struct._ts, ptr %16, i32 0, i32 8
  %18 = load i32, ptr %17, align 8, !tbaa !305
  %19 = load ptr, ptr %6, align 8, !tbaa !4
  %20 = getelementptr inbounds nuw %struct._ts, ptr %19, i32 0, i32 7
  %21 = load i32, ptr %20, align 4, !tbaa !306
  %22 = sub i32 %18, %21
  store i32 %22, ptr %8, align 4, !tbaa !97
  %23 = load i32, ptr %8, align 4, !tbaa !97
  %24 = load i32, ptr %5, align 4, !tbaa !97
  %25 = icmp sge i32 %23, %24
  br i1 %25, label %26, label %32

26:                                               ; preds = %15
  %27 = load ptr, ptr %6, align 8, !tbaa !4
  %28 = load ptr, ptr @PyExc_RecursionError, align 8, !tbaa !9
  %29 = load i32, ptr %5, align 4, !tbaa !97
  %30 = load i32, ptr %8, align 4, !tbaa !97
  %31 = call ptr (ptr, ptr, ptr, ...) @_PyErr_Format(ptr noundef %27, ptr noundef %28, ptr noundef @.str.128, i32 noundef %29, i32 noundef %30)
  store ptr null, ptr %3, align 8
  store i32 1, ptr %7, align 4
  br label %34

32:                                               ; preds = %15
  %33 = load i32, ptr %5, align 4, !tbaa !97
  call void @Py_SetRecursionLimit(i32 noundef %33)
  store ptr @_Py_NoneStruct, ptr %3, align 8
  store i32 1, ptr %7, align 4
  br label %34

34:                                               ; preds = %32, %26
  call void @llvm.lifetime.end.p0(i64 4, ptr %8) #12
  br label %35

35:                                               ; preds = %34, %12
  call void @llvm.lifetime.end.p0(i64 8, ptr %6) #12
  %36 = load ptr, ptr %3, align 8
  ret ptr %36
}

; Function Attrs: nounwind uwtable
define internal ptr @sys_setrecursionlimit(ptr noundef %0, ptr noundef %1) #0 {
  %3 = alloca ptr, align 8
  %4 = alloca ptr, align 8
  %5 = alloca ptr, align 8
  %6 = alloca i32, align 4
  store ptr %0, ptr %3, align 8, !tbaa !9
  store ptr %1, ptr %4, align 8, !tbaa !9
  call void @llvm.lifetime.start.p0(i64 8, ptr %5) #12
  store ptr null, ptr %5, align 8, !tbaa !9
  call void @llvm.lifetime.start.p0(i64 4, ptr %6) #12
  %7 = load ptr, ptr %4, align 8, !tbaa !9
  %8 = call i32 @PyLong_AsInt(ptr noundef %7)
  store i32 %8, ptr %6, align 4, !tbaa !97
  %9 = load i32, ptr %6, align 4, !tbaa !97
  %10 = icmp eq i32 %9, -1
  br i1 %10, label %11, label %15

11:                                               ; preds = %2
  %12 = call ptr @PyErr_Occurred()
  %13 = icmp ne ptr %12, null
  br i1 %13, label %14, label %15

14:                                               ; preds = %11
  br label %19

15:                                               ; preds = %11, %2
  %16 = load ptr, ptr %3, align 8, !tbaa !9
  %17 = load i32, ptr %6, align 4, !tbaa !97
  %18 = call ptr @sys_setrecursionlimit_impl(ptr noundef %16, i32 noundef %17)
  store ptr %18, ptr %5, align 8, !tbaa !9
  br label %19

19:                                               ; preds = %15, %14
  %20 = load ptr, ptr %5, align 8, !tbaa !9
  call void @llvm.lifetime.end.p0(i64 4, ptr %6) #12
  call void @llvm.lifetime.end.p0(i64 8, ptr %5) #12
  ret ptr %20
}