; Function Attrs: nounwind uwtable
define internal noundef ptr @sys_setrecursionlimit(ptr readnone captures(none) %0, ptr noundef %1) #0 {
  %3 = tail call i32 @PyLong_AsInt(ptr noundef %1) #15
  %4 = icmp eq i32 %3, -1
  br i1 %4, label %20, label %.split

.split:                                           ; preds = %2
  %5 = tail call align 8 ptr @llvm.threadlocal.address.p0(ptr align 8 @_Py_tss_tstate)
  %6 = load ptr, ptr %5, align 8, !tbaa !92
  %7 = icmp slt i32 %3, 1
  br i1 %7, label %8, label %10

8:                                                ; preds = %.split
  %9 = load ptr, ptr @PyExc_ValueError, align 8, !tbaa !93
  tail call void @_PyErr_SetString(ptr noundef %6, ptr noundef %9, ptr noundef nonnull @.str.127) #15
  br label %sys_setrecursionlimit_impl.exit

10:                                               ; preds = %.split
  %11 = getelementptr inbounds nuw i8, ptr %6, i64 48
  %12 = load i32, ptr %11, align 8, !tbaa !289
  %13 = getelementptr inbounds nuw i8, ptr %6, i64 44
  %14 = load i32, ptr %13, align 4, !tbaa !290
  %15 = sub i32 %12, %14
  %.not.i = icmp slt i32 %15, %3
  br i1 %.not.i, label %19, label %16

16:                                               ; preds = %10
  %17 = load ptr, ptr @PyExc_RecursionError, align 8, !tbaa !93
  %18 = tail call ptr (ptr, ptr, ptr, ...) @_PyErr_Format(ptr noundef nonnull %6, ptr noundef %17, ptr noundef nonnull @.str.128, i32 noundef %3, i32 noundef %15) #15
  br label %sys_setrecursionlimit_impl.exit

19:                                               ; preds = %10
  tail call void @Py_SetRecursionLimit(i32 noundef %3) #15
  br label %sys_setrecursionlimit_impl.exit

20:                                               ; preds = %2
  %21 = tail call ptr @PyErr_Occurred() #15
  %.not = icmp eq ptr %21, null
  br i1 %.not, label %.split4, label %sys_setrecursionlimit_impl.exit

.split4:                                          ; preds = %20
  %22 = tail call align 8 ptr @llvm.threadlocal.address.p0(ptr align 8 @_Py_tss_tstate)
  %23 = load ptr, ptr %22, align 8, !tbaa !92
  %24 = load ptr, ptr @PyExc_ValueError, align 8, !tbaa !93
  tail call void @_PyErr_SetString(ptr noundef %23, ptr noundef %24, ptr noundef nonnull @.str.127) #15
  br label %sys_setrecursionlimit_impl.exit

sys_setrecursionlimit_impl.exit:                  ; preds = %19, %16, %8, %.split4, %20
  %.0 = phi ptr [ null, %20 ], [ null, %.split4 ], [ null, %8 ], [ null, %16 ], [ @_Py_NoneStruct, %19 ]
  ret ptr %.0
}